; Function Attrs: mustprogress nofree norecurse nosync nounwind willreturn memory(argmem: write) uwtable
define hidden void @_ZN6google8protobuf2io24ConcatenatingInputStreamC2EPKPNS1_19ZeroCopyInputStreamEi(ptr noundef nonnull writeonly align 8 captures(none) dereferenceable(32) initializes((0, 20), (24, 32)) %0, ptr noundef %1, i32 noundef %2) unnamed_addr #11 align 2 {
  store ptr getelementptr inbounds nuw inrange(-16, 48) (i8, ptr @_ZTVN6google8protobuf2io24ConcatenatingInputStreamE, i64 16), ptr %0, align 8, !tbaa !3
  %4 = getelementptr inbounds nuw i8, ptr %0, i64 8
  store ptr %1, ptr %4, align 8, !tbaa !49
  %5 = getelementptr inbounds nuw i8, ptr %0, i64 16
  store i32 %2, ptr %5, align 8, !tbaa !54
  %6 = getelementptr inbounds nuw i8, ptr %0, i64 24
  store i64 0, ptr %6, align 8, !tbaa !55
  ret void
}